target datalayout = "e-m:e-p270:32:32-p271:32:32-p272:64:64-i64:64-i128:128-f80:128-n8:16:32:64-S128"
target triple = "x86_64-unknown-linux-gnu"

%"struct.node::AssertionInfo" = type { ptr, ptr, ptr }
%struct.UIDNAInfo = type { i16, i8, i8, i32, i32, i32 }
%"class.node::MaybeStackBuffer" = type { i64, i64, ptr, [1024 x i8] }

@__const._ZN4node4i18n9ToUnicodeEPNS_16MaybeStackBufferIcLm1024EEEPKcm.info = private unnamed_addr constant %struct.UIDNAInfo { i16 16, i8 0, i8 0, i32 0, i32 0, i32 0 }, align 4
@_ZZN4node16MaybeStackBufferIcLm1024EE9SetLengthEmE4args = linkonce_odr dso_local constant %"struct.node::AssertionInfo" { ptr @.str.85, ptr @.str.86, ptr @.str.87 }, comdat, align 8

; Function Attrs: mustprogress nounwind uwtable
define linkonce_odr dso_local void @_ZN4node16MaybeStackBufferIcLm1024EE9SetLengthEm(ptr noundef nonnull align 8 dereferenceable(1048) %this, i64 noundef %length) #4 comdat align 2 {
entry:
  %this.addr = alloca ptr, align 8
  %length.addr = alloca i64, align 8
  store ptr %this, ptr %this.addr, align 8
  store i64 %length, ptr %length.addr, align 8
  %this1 = load ptr, ptr %this.addr, align 8
  br label %do.body

do.body:                                          ; preds = %entry
  %0 = load i64, ptr %length.addr, align 8
  %call = call noundef i64 @_ZNK4node16MaybeStackBufferIcLm1024EE8capacityEv(ptr noundef nonnull align 8 dereferenceable(1048) %this1)
  %cmp = icmp ule i64 %0, %call
  %lnot = xor i1 %cmp, true
  %lnot2 = xor i1 %lnot, true
  %lnot3 = xor i1 %lnot2, true
  br i1 %lnot3, label %if.then, label %if.end

if.then:                                          ; preds = %do.body
  br label %do.body4

do.body4:                                         ; preds = %if.then
  call void @_ZN4node6AssertERKNS_13AssertionInfoE(ptr noundef nonnull align 8 dereferenceable(24) @_ZZN4node16MaybeStackBufferIcLm1024EE9SetLengthEmE4args)
  call void @abort() #14
  unreachable

do.end:                                           ; No predecessors!
  br label %if.end

if.end:                                           ; preds = %do.end, %do.body
  br label %do.end5

do.end5:                                          ; preds = %if.end
  %1 = load i64, ptr %length.addr, align 8
  %length_ = getelementptr inbounds %"class.node::MaybeStackBuffer", ptr %this1, i32 0, i32 0
  store i64 %1, ptr %length_, align 8
  ret void
}

; Function Attrs: mustprogress nounwind uwtable
define linkonce_odr dso_local noundef i64 @_ZNK4node16MaybeStackBufferIcLm1024EE8capacityEv(ptr noundef nonnull align 8 dereferenceable(1048) %this) #4 comdat align 2 {
entry:
  %this.addr = alloca ptr, align 8
  store ptr %this, ptr %this.addr, align 8
  %this1 = load ptr, ptr %this.addr, align 8
  %capacity_ = getelementptr inbounds %"class.node::MaybeStackBuffer", ptr %this1, i32 0, i32 1
  %0 = load i64, ptr %capacity_, align 8
  ret i64 %0
}

; Function Attrs: mustprogress nounwind uwtable
define linkonce_odr dso_local noundef ptr @_ZN4node16MaybeStackBufferIcLm1024EEdeEv(ptr noundef nonnull align 8 dereferenceable(1048) %this) #4 comdat align 2 {
entry:
  %this.addr = alloca ptr, align 8
  store ptr %this, ptr %this.addr, align 8
  %this1 = load ptr, ptr %this.addr, align 8
  %buf_ = getelementptr inbounds %"class.node::MaybeStackBuffer", ptr %this1, i32 0, i32 2
  %0 = load ptr, ptr %buf_, align 8
  ret ptr %0
}

; Function Attrs: mustprogress nounwind uwtable
define internal noundef signext i8 @_ZL9U_FAILURE10UErrorCode(i32 noundef %code) #4 {
entry:
  %code.addr = alloca i32, align 4
  store i32 %code, ptr %code.addr, align 4
  %0 = load i32, ptr %code.addr, align 4
  %cmp = icmp sgt i32 %0, 0
  %conv = zext i1 %cmp to i8
  ret i8 %conv
}

; Function Attrs: mustprogress nounwind uwtable
define dso_local noundef i32 @_ZN4node4i18n9ToUnicodeEPNS_16MaybeStackBufferIcLm1024EEEPKcm(ptr noundef %buf, ptr noundef %input, i64 noundef %length) #4 {
entry:
  %retval = alloca i32, align 4
  %buf.addr = alloca ptr, align 8
  %input.addr = alloca ptr, align 8
  %length.addr = alloca i64, align 8
  %status = alloca i32, align 4
  %options = alloca i32, align 4
  %uidna = alloca ptr, align 8
  %info = alloca %struct.UIDNAInfo, align 4
  %len = alloca i32, align 4
  store ptr %buf, ptr %buf.addr, align 8
  store ptr %input, ptr %input.addr, align 8
  store i64 %length, ptr %length.addr, align 8
  store i32 0, ptr %status, align 4
  store i32 32, ptr %options, align 4
  %0 = load i32, ptr %options, align 4
  %call = call ptr @uidna_openUTS46_74(i32 noundef %0, ptr noundef %status)
  store ptr %call, ptr %uidna, align 8
  %1 = load i32, ptr %status, align 4
  %call1 = call noundef signext i8 @_ZL9U_FAILURE10UErrorCode(i32 noundef %1)
  %tobool = icmp ne i8 %call1, 0
  br i1 %tobool, label %if.then, label %if.end

if.then:                                          ; preds = %entry
  store i32 -1, ptr %retval, align 4
  br label %return

if.end:                                           ; preds = %entry
  call void @llvm.memcpy.p0.p0.i64(ptr align 4 %info, ptr align 4 @__const._ZN4node4i18n9ToUnicodeEPNS_16MaybeStackBufferIcLm1024EEEPKcm.info, i64 16, i1 false)
  %2 = load ptr, ptr %uidna, align 8
  %3 = load ptr, ptr %input.addr, align 8
  %4 = load i64, ptr %length.addr, align 8
  %conv = trunc i64 %4 to i32
  %5 = load ptr, ptr %buf.addr, align 8
  %call2 = call noundef ptr @_ZN4node16MaybeStackBufferIcLm1024EEdeEv(ptr noundef nonnull align 8 dereferenceable(1048) %5)
  %6 = load ptr, ptr %buf.addr, align 8
  %call3 = call noundef i64 @_ZNK4node16MaybeStackBufferIcLm1024EE8capacityEv(ptr noundef nonnull align 8 dereferenceable(1048) %6)
  %conv4 = trunc i64 %call3 to i32
  %call5 = call i32 @uidna_nameToUnicodeUTF8_74(ptr noundef %2, ptr noundef %3, i32 noundef %conv, ptr noundef %call2, i32 noundef %conv4, ptr noundef %info, ptr noundef %status)
  store i32 %call5, ptr %len, align 4
  %7 = load i32, ptr %status, align 4
  %cmp = icmp eq i32 %7, 15
  br i1 %cmp, label %if.then6, label %if.end13

if.then6:                                         ; preds = %if.end
  store i32 0, ptr %status, align 4
  %8 = load ptr, ptr %buf.addr, align 8
  %9 = load i32, ptr %len, align 4
  %conv7 = sext i32 %9 to i64
  call void @_ZN4node16MaybeStackBufferIcLm1024EE25AllocateSufficientStorageEm(ptr noundef nonnull align 8 dereferenceable(1048) %8, i64 noundef %conv7)
  %10 = load ptr, ptr %uidna, align 8
  %11 = load ptr, ptr %input.addr, align 8
  %12 = load i64, ptr %length.addr, align 8
  %conv8 = trunc i64 %12 to i32
  %13 = load ptr, ptr %buf.addr, align 8
  %call9 = call noundef ptr @_ZN4node16MaybeStackBufferIcLm1024EEdeEv(ptr noundef nonnull align 8 dereferenceable(1048) %13)
  %14 = load ptr, ptr %buf.addr, align 8
  %call10 = call noundef i64 @_ZNK4node16MaybeStackBufferIcLm1024EE8capacityEv(ptr noundef nonnull align 8 dereferenceable(1048) %14)
  %conv11 = trunc i64 %call10 to i32
  %call12 = call i32 @uidna_nameToUnicodeUTF8_74(ptr noundef %10, ptr noundef %11, i32 noundef %conv8, ptr noundef %call9, i32 noundef %conv11, ptr noundef %info, ptr noundef %status)
  store i32 %call12, ptr %len, align 4
  br label %if.end13

if.end13:                                         ; preds = %if.then6, %if.end
  %15 = load i32, ptr %status, align 4
  %call14 = call noundef signext i8 @_ZL9U_FAILURE10UErrorCode(i32 noundef %15)
  %tobool15 = icmp ne i8 %call14, 0
  br i1 %tobool15, label %if.then16, label %if.else

if.then16:                                        ; preds = %if.end13
  store i32 -1, ptr %len, align 4
  %16 = load ptr, ptr %buf.addr, align 8
  call void @_ZN4node16MaybeStackBufferIcLm1024EE9SetLengthEm(ptr noundef nonnull align 8 dereferenceable(1048) %16, i64 noundef 0)
  br label %if.end18

if.else:                                          ; preds = %if.end13
  %17 = load ptr, ptr %buf.addr, align 8
  %18 = load i32, ptr %len, align 4
  %conv17 = sext i32 %18 to i64
  call void @_ZN4node16MaybeStackBufferIcLm1024EE9SetLengthEm(ptr noundef nonnull align 8 dereferenceable(1048) %17, i64 noundef %conv17)
  br label %if.end18

if.end18:                                         ; preds = %if.else, %if.then16
  %19 = load ptr, ptr %uidna, align 8
  call void @uidna_close_74(ptr noundef %19)
  %20 = load i32, ptr %len, align 4
  store i32 %20, ptr %retval, align 4
  br label %return

return:                                           ; preds = %if.end18, %if.then
  %21 = load i32, ptr %retval, align 4
  ret i32 %21
}