; Function Attrs: mustprogress nounwind uwtable
define dso_local noundef i32 @_ZN4node4i18n9ToUnicodeEPNS_16MaybeStackBufferIcLm1024EEEPKcm(ptr noundef %buf, ptr noundef %input, i64 noundef %length) local_unnamed_addr #3 {
entry:
  %status = alloca i32, align 4
  %info = alloca %struct.UIDNAInfo, align 4
  store i32 0, ptr %status, align 4
  %call = call ptr @uidna_openUTS46_74(i32 noundef 32, ptr noundef nonnull %status) #21
  %0 = load i32, ptr %status, align 4
  %cmp.i = icmp slt i32 %0, 1
  br i1 %cmp.i, label %if.end, label %return

if.end:                                           ; preds = %entry
  call void @llvm.memcpy.p0.p0.i64(ptr noundef nonnull align 4 dereferenceable(16) %info, ptr noundef nonnull align 4 dereferenceable(16) @__const._ZN4node4i18n7ToASCIIEPNS_16MaybeStackBufferIcLm1024EEEPKcmNS0_9idna_modeE.info, i64 16, i1 false)
  %conv = trunc i64 %length to i32
  %buf_.i = getelementptr inbounds i8, ptr %buf, i64 16
  %1 = load ptr, ptr %buf_.i, align 8
  %capacity_.i = getelementptr inbounds i8, ptr %buf, i64 8
  %2 = load i64, ptr %capacity_.i, align 8
  %conv4 = trunc i64 %2 to i32
  %call5 = call i32 @uidna_nameToUnicodeUTF8_74(ptr noundef %call, ptr noundef %input, i32 noundef %conv, ptr noundef %1, i32 noundef %conv4, ptr noundef nonnull %info, ptr noundef nonnull %status) #21
  %3 = load i32, ptr %status, align 4
  %cmp = icmp eq i32 %3, 15
  br i1 %cmp, label %if.then6, label %if.end13

if.then6:                                         ; preds = %if.end
  store i32 0, ptr %status, align 4
  %conv7 = sext i32 %call5 to i64
  call void @_ZN4node16MaybeStackBufferIcLm1024EE25AllocateSufficientStorageEm(ptr noundef nonnull align 8 dereferenceable(1048) %buf, i64 noundef %conv7)
  %4 = load ptr, ptr %buf_.i, align 8
  %5 = load i64, ptr %capacity_.i, align 8
  %conv11 = trunc i64 %5 to i32
  %call12 = call i32 @uidna_nameToUnicodeUTF8_74(ptr noundef %call, ptr noundef %input, i32 noundef %conv, ptr noundef %4, i32 noundef %conv11, ptr noundef nonnull %info, ptr noundef nonnull %status) #21
  %.pre = load i32, ptr %status, align 4
  br label %if.end13

if.end13:                                         ; preds = %if.then6, %if.end
  %6 = phi i32 [ %.pre, %if.then6 ], [ %3, %if.end ]
  %len.0 = phi i32 [ %call12, %if.then6 ], [ %call5, %if.end ]
  %cmp.i15 = icmp slt i32 %6, 1
  br i1 %cmp.i15, label %if.else, label %if.end18

if.else:                                          ; preds = %if.end13
  %conv17 = sext i32 %len.0 to i64
  %7 = load i64, ptr %capacity_.i, align 8
  %cmp.not.i = icmp ult i64 %7, %conv17
  br i1 %cmp.not.i, label %do.body4.i, label %if.end18

do.body4.i:                                       ; preds = %if.else
  call void @_ZN4node6AssertERKNS_13AssertionInfoE(ptr noundef nonnull align 8 dereferenceable(24) @_ZZN4node16MaybeStackBufferIcLm1024EE9SetLengthEmE4args) #21
  call void @abort() #22
  unreachable

if.end18:                                         ; preds = %if.else, %if.end13
  %storemerge = phi i64 [ 0, %if.end13 ], [ %conv17, %if.else ]
  %len.1 = phi i32 [ -1, %if.end13 ], [ %len.0, %if.else ]
  store i64 %storemerge, ptr %buf, align 8
  call void @uidna_close_74(ptr noundef %call) #21
  br label %return

return:                                           ; preds = %entry, %if.end18
  %retval.0 = phi i32 [ %len.1, %if.end18 ], [ -1, %entry ]
  ret i32 %retval.0
}